; Function Attrs: nounwind uwtable
define hidden ptr @Wayland_data_source_get_data(ptr noundef readonly captures(address_is_null) %0, ptr noundef %1, ptr noundef initializes((0, 8)) %2) local_unnamed_addr #0 {
  store i64 0, ptr %2, align 8
  %.not = icmp eq ptr %0, null
  br i1 %.not, label %4, label %6

4:                                                ; preds = %3
  %5 = tail call zeroext i1 (ptr, ...) @SDL_SetError_REAL(ptr noundef nonnull @.str.1) #12
  br label %Wayland_clone_data_buffer.exit

6:                                                ; preds = %3
  %7 = getelementptr inbounds nuw i8, ptr %0, i64 16
  %8 = load ptr, ptr %7, align 8
  %.not12 = icmp eq ptr %8, null
  br i1 %.not12, label %Wayland_clone_data_buffer.exit, label %9

9:                                                ; preds = %6
  %10 = getelementptr inbounds nuw i8, ptr %0, i64 32
  %11 = load ptr, ptr %10, align 8
  %12 = tail call ptr %8(ptr noundef %11, ptr noundef %1, ptr noundef nonnull %2) #12
  %13 = load i64, ptr %2, align 8
  %14 = icmp ne i64 %13, 0
  %15 = icmp ne ptr %12, null
  %or.cond.i = and i1 %15, %14
  br i1 %or.cond.i, label %16, label %Wayland_clone_data_buffer.exit

16:                                               ; preds = %9
  %17 = add i64 %13, 4
  %18 = tail call noalias ptr @SDL_malloc_REAL(i64 noundef %17) #12
  %.not.i = icmp eq ptr %18, null
  br i1 %.not.i, label %Wayland_clone_data_buffer.exit, label %19

19:                                               ; preds = %16
  %20 = load i64, ptr %2, align 8
  tail call void @llvm.memcpy.p0.p0.i64(ptr nonnull align 1 %18, ptr nonnull readonly align 1 %12, i64 %20, i1 false)
  %21 = getelementptr inbounds nuw i8, ptr %18, i64 %20
  store i32 0, ptr %21, align 1
  br label %Wayland_clone_data_buffer.exit

Wayland_clone_data_buffer.exit:                   ; preds = %19, %16, %9, %6, %4
  %.0 = phi ptr [ null, %6 ], [ null, %4 ], [ %18, %19 ], [ null, %16 ], [ null, %9 ]
  ret ptr %.0
}